; Function Attrs: mustprogress uwtable
define hidden void @_ZN4lean5printERKNS_4exprE(ptr noundef nonnull align 8 dereferenceable(8) %0) local_unnamed_addr #0 personality ptr @__gxx_personality_v0 {
  %2 = load ptr, ptr @_ZN4leanL7g_printE, align 8, !tbaa !3
  %.not.i = icmp eq ptr %2, null
  br i1 %.not.i, label %7, label %3

3:                                                ; preds = %1
  %4 = getelementptr inbounds nuw i8, ptr %2, i64 16
  %5 = load ptr, ptr %4, align 8, !tbaa !8
  %.not.i.i.i = icmp eq ptr %5, null
  br i1 %.not.i.i.i, label %6, label %_ZN4leanlsERSoRKNS_4exprE.exit

6:                                                ; preds = %3
  tail call void @_ZSt25__throw_bad_function_callv() #16
  unreachable

7:                                                ; preds = %1
  %8 = tail call ptr @__cxa_allocate_exception(i64 40) #17
  invoke void @_ZN4lean9exceptionC2EPKc(ptr noundef nonnull align 8 dereferenceable(40) %8, ptr noundef nonnull @.str)
          to label %9 unwind label %10

9:                                                ; preds = %7
  tail call void @__cxa_throw(ptr nonnull %8, ptr nonnull @_ZTIN4lean9exceptionE, ptr nonnull @_ZN4lean9throwableD2Ev) #16
  unreachable

10:                                               ; preds = %7
  %11 = landingpad { ptr, i32 }
          cleanup
  tail call void @__cxa_free_exception(ptr nonnull %8) #17
  resume { ptr, i32 } %11

_ZN4leanlsERSoRKNS_4exprE.exit:                   ; preds = %3
  %12 = getelementptr inbounds nuw i8, ptr %2, i64 24
  %13 = load ptr, ptr %12, align 8, !tbaa !10
  tail call void %13(ptr noundef nonnull align 8 dereferenceable(32) %2, ptr noundef nonnull align 8 dereferenceable(8) @_ZSt4cout, ptr noundef nonnull align 8 dereferenceable(8) %0)
  %14 = load ptr, ptr @_ZSt4cout, align 8, !tbaa !12
  %15 = getelementptr i8, ptr %14, i64 -24
  %16 = load i64, ptr %15, align 8
  %17 = getelementptr inbounds i8, ptr @_ZSt4cout, i64 %16
  %18 = getelementptr inbounds nuw i8, ptr %17, i64 240
  %19 = load ptr, ptr %18, align 8, !tbaa !14
  %.not.i.i.i1 = icmp eq ptr %19, null
  br i1 %.not.i.i.i1, label %20, label %_ZSt13__check_facetISt5ctypeIcEERKT_PS3_.exit.i.i

20:                                               ; preds = %_ZN4leanlsERSoRKNS_4exprE.exit
  tail call void @_ZSt16__throw_bad_castv() #16
  unreachable

_ZSt13__check_facetISt5ctypeIcEERKT_PS3_.exit.i.i: ; preds = %_ZN4leanlsERSoRKNS_4exprE.exit
  %21 = getelementptr inbounds nuw i8, ptr %19, i64 56
  %22 = load i8, ptr %21, align 8, !tbaa !32
  %.not.i1.i.i = icmp eq i8 %22, 0
  br i1 %.not.i1.i.i, label %26, label %23

23:                                               ; preds = %_ZSt13__check_facetISt5ctypeIcEERKT_PS3_.exit.i.i
  %24 = getelementptr inbounds nuw i8, ptr %19, i64 67
  %25 = load i8, ptr %24, align 1, !tbaa !38
  br label %_ZSt4endlIcSt11char_traitsIcEERSt13basic_ostreamIT_T0_ES6_.exit

26:                                               ; preds = %_ZSt13__check_facetISt5ctypeIcEERKT_PS3_.exit.i.i
  tail call void @_ZNKSt5ctypeIcE13_M_widen_initEv(ptr noundef nonnull align 8 dereferenceable(570) %19)
  %27 = load ptr, ptr %19, align 8, !tbaa !12
  %28 = getelementptr inbounds nuw i8, ptr %27, i64 48
  %29 = load ptr, ptr %28, align 8
  %30 = tail call noundef signext i8 %29(ptr noundef nonnull align 8 dereferenceable(570) %19, i8 noundef signext 10)
  br label %_ZSt4endlIcSt11char_traitsIcEERSt13basic_ostreamIT_T0_ES6_.exit

_ZSt4endlIcSt11char_traitsIcEERSt13basic_ostreamIT_T0_ES6_.exit: ; preds = %23, %26
  %.0.i.i.i = phi i8 [ %25, %23 ], [ %30, %26 ]
  %31 = tail call noundef nonnull align 8 dereferenceable(8) ptr @_ZNSo3putEc(ptr noundef nonnull align 8 dereferenceable(8) @_ZSt4cout, i8 noundef signext %.0.i.i.i)
  %32 = tail call noundef nonnull align 8 dereferenceable(8) ptr @_ZNSo5flushEv(ptr noundef nonnull align 8 dereferenceable(8) %31)
  ret void
}